; ModuleID = '29/1927.c'
source_filename = "29/1927.c"
target datalayout = "e-m:e-p270:32:32-p271:32:32-p272:64:64-i64:64-f80:128-n8:16:32:64-S128"
target triple = "x86_64-pc-linux-gnu"

@.str = private unnamed_addr constant [3 x i8] c"%d\00", align 1
@.str.1 = private unnamed_addr constant [4 x i8] c"%d\0A\00", align 1
@.str.2 = private unnamed_addr constant [2 x i8] c"0\00", align 1
@.str.3 = private unnamed_addr constant [6 x i8] c"%.3f\0A\00", align 1

; Function Attrs: noinline nounwind uwtable
define dso_local i32 @main() #0 {
  %1 = alloca i32, align 4
  %2 = alloca i32, align 4
  %3 = alloca [100 x i32], align 16
  %4 = alloca i32, align 4
  %5 = alloca i32, align 4
  %6 = alloca float, align 4
  %7 = alloca [100 x float], align 16
  %8 = alloca float, align 4
  store i32 0, i32* %1, align 4
  %9 = call i32 (i8*, ...) @__isoc99_scanf(i8* getelementptr inbounds ([3 x i8], [3 x i8]* @.str, i64 0, i64 0), i32* %2)
  store i32 1, i32* %4, align 4
  br label %10

10:                                               ; preds = %19, %0
  %11 = load i32, i32* %4, align 4
  %12 = load i32, i32* %2, align 4
  %13 = icmp slt i32 %11, %12
  br i1 %13, label %14, label %22

14:                                               ; preds = %10
  %15 = load i32, i32* %4, align 4
  %16 = sext i32 %15 to i64
  %17 = getelementptr inbounds [100 x i32], [100 x i32]* %3, i64 0, i64 %16
  %18 = call i32 (i8*, ...) @__isoc99_scanf(i8* getelementptr inbounds ([4 x i8], [4 x i8]* @.str.1, i64 0, i64 0), i32* %17)
  br label %19

19:                                               ; preds = %14
  %20 = load i32, i32* %4, align 4
  %21 = add nsw i32 %20, 1
  store i32 %21, i32* %4, align 4
  br label %10

22:                                               ; preds = %10
  %23 = load i32, i32* %2, align 4
  %24 = sext i32 %23 to i64
  %25 = getelementptr inbounds [100 x i32], [100 x i32]* %3, i64 0, i64 %24
  %26 = call i32 (i8*, ...) @__isoc99_scanf(i8* getelementptr inbounds ([3 x i8], [3 x i8]* @.str, i64 0, i64 0), i32* %25)
  store i32 1, i32* %4, align 4
  br label %27

27:                                               ; preds = %65, %22
  %28 = load i32, i32* %4, align 4
  %29 = load i32, i32* %2, align 4
  %30 = icmp sle i32 %28, %29
  br i1 %30, label %31, label %68

31:                                               ; preds = %27
  %32 = load i32, i32* %4, align 4
  %33 = sext i32 %32 to i64
  %34 = getelementptr inbounds [100 x i32], [100 x i32]* %3, i64 0, i64 %33
  %35 = load i32, i32* %34, align 4
  %36 = icmp eq i32 %35, 0
  br i1 %36, label %37, label %39

37:                                               ; preds = %31
  %38 = call i32 (i8*, ...) @printf(i8* getelementptr inbounds ([2 x i8], [2 x i8]* @.str.2, i64 0, i64 0))
  br label %64

39:                                               ; preds = %31
  store i32 1, i32* %5, align 4
  store float 2.000000e+00, float* %6, align 4
  store float 0.000000e+00, float* %8, align 4
  br label %40

40:                                               ; preds = %60, %39
  %41 = load i32, i32* %5, align 4
  %42 = load i32, i32* %4, align 4
  %43 = sext i32 %42 to i64
  %44 = getelementptr inbounds [100 x i32], [100 x i32]* %3, i64 0, i64 %43
  %45 = load i32, i32* %44, align 4
  %46 = icmp sle i32 %41, %45
  br i1 %46, label %47, label %63

47:                                               ; preds = %40
  %48 = load float, float* %8, align 4
  %49 = load float, float* %6, align 4
  %50 = fadd float %48, %49
  store float %50, float* %8, align 4
  %51 = load float, float* %6, align 4
  %52 = fpext float %51 to double
  %53 = fdiv double 1.000000e+00, %52
  %54 = fadd double 1.000000e+00, %53
  %55 = fptrunc double %54 to float
  store float %55, float* %6, align 4
  %56 = load float, float* %8, align 4
  %57 = load i32, i32* %4, align 4
  %58 = sext i32 %57 to i64
  %59 = getelementptr inbounds [100 x float], [100 x float]* %7, i64 0, i64 %58
  store float %56, float* %59, align 4
  br label %60

60:                                               ; preds = %47
  %61 = load i32, i32* %5, align 4
  %62 = add nsw i32 %61, 1
  store i32 %62, i32* %5, align 4
  br label %40

63:                                               ; preds = %40
  br label %64

64:                                               ; preds = %63, %37
  br label %65

65:                                               ; preds = %64
  %66 = load i32, i32* %4, align 4
  %67 = add nsw i32 %66, 1
  store i32 %67, i32* %4, align 4
  br label %27

68:                                               ; preds = %27
  store i32 1, i32* %4, align 4
  br label %69

69:                                               ; preds = %80, %68
  %70 = load i32, i32* %4, align 4
  %71 = load i32, i32* %2, align 4
  %72 = icmp sle i32 %70, %71
  br i1 %72, label %73, label %83

73:                                               ; preds = %69
  %74 = load i32, i32* %4, align 4
  %75 = sext i32 %74 to i64
  %76 = getelementptr inbounds [100 x float], [100 x float]* %7, i64 0, i64 %75
  %77 = load float, float* %76, align 4
  %78 = fpext float %77 to double
  %79 = call i32 (i8*, ...) @printf(i8* getelementptr inbounds ([6 x i8], [6 x i8]* @.str.3, i64 0, i64 0), double %78)
  br label %80

80:                                               ; preds = %73
  %81 = load i32, i32* %4, align 4
  %82 = add nsw i32 %81, 1
  store i32 %82, i32* %4, align 4
  br label %69

83:                                               ; preds = %69
  %84 = load i32, i32* %1, align 4
  ret i32 %84
}

declare dso_local i32 @__isoc99_scanf(i8*, ...) #1

declare dso_local i32 @printf(i8*, ...) #1


!llvm.module.flags = !{!0}
!llvm.ident = !{!1}

!0 = !{i32 1, !"wchar_size", i32 4}
!1 = !{!"clang version 10.0.0-4ubuntu1 "}
